target datalayout = "e-m:e-p270:32:32-p271:32:32-p272:64:64-i64:64-i128:128-f80:128-n8:16:32:64-S128"
target triple = "x86_64-pc-linux-gnu"

@.str.95 = private unnamed_addr constant [19 x i8] c" Invalid structure\00", align 1
@.str.96 = private unnamed_addr constant [18 x i8] c" Not IPV4 address\00", align 1
@.str.97 = private unnamed_addr constant [11 x i8] c" (invalid)\00", align 1
@.str.98 = private unnamed_addr constant [6 x i8] c" (%s)\00", align 1
@.str.99 = private unnamed_addr constant [11 x i8] c"<<-- WHAT?\00", align 1

; Function Attrs: null_pointer_is_valid sspstrong uwtable
define internal i32 @dissect_lower_address(ptr noundef %0, ptr noundef %1, i32 noundef %2, ptr noundef %3, i32 noundef %4, i32 noundef %5, i32 noundef %6, i32 noundef %7, i32 noundef %8) #0 {
  %10 = alloca i32, align 4
  %11 = alloca ptr, align 8
  %12 = alloca ptr, align 8
  %13 = alloca i32, align 4
  %14 = alloca ptr, align 8
  %15 = alloca i32, align 4
  %16 = alloca i32, align 4
  %17 = alloca i32, align 4
  %18 = alloca i32, align 4
  %19 = alloca i32, align 4
  %20 = alloca i32, align 4
  %21 = alloca i8, align 1
  %22 = alloca i8, align 1
  %23 = alloca ptr, align 8
  %24 = alloca ptr, align 8
  %25 = alloca ptr, align 8
  %26 = alloca i32, align 4
  store ptr %0, ptr %11, align 8
  store ptr %1, ptr %12, align 8
  store i32 %2, ptr %13, align 4
  store ptr %3, ptr %14, align 8
  store i32 %4, ptr %15, align 4
  store i32 %5, ptr %16, align 4
  store i32 %6, ptr %17, align 4
  store i32 %7, ptr %18, align 4
  store i32 %8, ptr %19, align 4
  call void @llvm.lifetime.start.p0(i64 4, ptr %20) #4
  %27 = load i32, ptr %15, align 4
  store i32 %27, ptr %20, align 4
  call void @llvm.lifetime.start.p0(i64 1, ptr %21) #4
  call void @llvm.lifetime.start.p0(i64 1, ptr %22) #4
  call void @llvm.lifetime.start.p0(i64 8, ptr %23) #4
  call void @llvm.lifetime.start.p0(i64 8, ptr %24) #4
  call void @llvm.lifetime.start.p0(i64 8, ptr %25) #4
  %28 = load ptr, ptr %12, align 8
  %29 = load i32, ptr %13, align 4
  %30 = call ptr @proto_item_add_subtree(ptr noundef %28, i32 noundef %29)
  store ptr %30, ptr %24, align 8
  %31 = load ptr, ptr %14, align 8
  %32 = load i32, ptr %20, align 4
  %33 = call zeroext i8 @tvb_get_uint8(ptr noundef %31, i32 noundef %32)
  store i8 %33, ptr %21, align 1
  %34 = load ptr, ptr %14, align 8
  %35 = load i32, ptr %20, align 4
  %36 = load i8, ptr %21, align 1
  %37 = zext i8 %36 to i32
  %38 = add i32 %35, %37
  %39 = add i32 %38, 1
  %40 = call i32 @tvb_captured_length_remaining(ptr noundef %34, i32 noundef %39)
  %41 = icmp sle i32 %40, 0
  br i1 %41, label %42, label %44

42:                                               ; preds = %9
  %43 = load i32, ptr %20, align 4
  store i32 %43, ptr %10, align 4
  store i32 1, ptr %26, align 4
  br label %151

44:                                               ; preds = %9
  %45 = load ptr, ptr %14, align 8
  %46 = load i32, ptr %20, align 4
  %47 = load i8, ptr %21, align 1
  %48 = zext i8 %47 to i32
  %49 = add i32 %46, %48
  %50 = add i32 %49, 1
  %51 = call zeroext i8 @tvb_get_uint8(ptr noundef %45, i32 noundef %50)
  store i8 %51, ptr %22, align 1
  %52 = load ptr, ptr %14, align 8
  %53 = load i32, ptr %20, align 4
  %54 = load i8, ptr %21, align 1
  %55 = zext i8 %54 to i32
  %56 = add i32 %53, %55
  %57 = load i8, ptr %22, align 1
  %58 = zext i8 %57 to i32
  %59 = add i32 %56, %58
  %60 = add i32 %59, 2
  %61 = call i32 @tvb_reported_length_remaining(ptr noundef %52, i32 noundef %60)
  %62 = icmp sle i32 %61, 0
  br i1 %62, label %63, label %65

63:                                               ; preds = %44
  %64 = load i32, ptr %20, align 4
  store i32 %64, ptr %10, align 4
  store i32 1, ptr %26, align 4
  br label %151

65:                                               ; preds = %44
  %66 = load i8, ptr %21, align 1
  %67 = zext i8 %66 to i32
  %68 = icmp ne i32 %67, 17
  br i1 %68, label %73, label %69

69:                                               ; preds = %65
  %70 = load i8, ptr %22, align 1
  %71 = zext i8 %70 to i32
  %72 = icmp ne i32 %71, 2
  br i1 %72, label %73, label %76

73:                                               ; preds = %69, %65
  %74 = load ptr, ptr %24, align 8
  call void (ptr, ptr, ...) @proto_item_append_text(ptr noundef %74, ptr noundef @.str.95)
  %75 = load i32, ptr %20, align 4
  store i32 %75, ptr %10, align 4
  store i32 1, ptr %26, align 4
  br label %151

76:                                               ; preds = %69
  %77 = load ptr, ptr %14, align 8
  %78 = load i32, ptr %20, align 4
  %79 = add i32 %78, 1
  %80 = call zeroext i8 @tvb_get_uint8(ptr noundef %77, i32 noundef %79)
  %81 = zext i8 %80 to i32
  %82 = icmp ne i32 130, %81
  br i1 %82, label %83, label %86

83:                                               ; preds = %76
  %84 = load ptr, ptr %24, align 8
  call void (ptr, ptr, ...) @proto_item_append_text(ptr noundef %84, ptr noundef @.str.96)
  %85 = load i32, ptr %20, align 4
  store i32 %85, ptr %10, align 4
  store i32 1, ptr %26, align 4
  br label %151

86:                                               ; preds = %76
  %87 = load i32, ptr %20, align 4
  %88 = add i32 %87, 2
  store i32 %88, ptr %20, align 4
  %89 = load ptr, ptr %24, align 8
  %90 = load i32, ptr %16, align 4
  %91 = load ptr, ptr %14, align 8
  %92 = load i32, ptr %20, align 4
  %93 = call ptr @proto_tree_add_item(ptr noundef %89, i32 noundef %90, ptr noundef %91, i32 noundef %92, i32 noundef 2, i32 noundef 0)
  %94 = load i32, ptr %20, align 4
  %95 = add i32 %94, 2
  store i32 %95, ptr %20, align 4
  %96 = load ptr, ptr %24, align 8
  %97 = load i32, ptr %18, align 4
  %98 = load ptr, ptr %14, align 8
  %99 = load i32, ptr %20, align 4
  %100 = call ptr @proto_tree_add_item(ptr noundef %96, i32 noundef %97, ptr noundef %98, i32 noundef %99, i32 noundef 2, i32 noundef 0)
  %101 = load i32, ptr %20, align 4
  %102 = add i32 %101, 2
  store i32 %102, ptr %20, align 4
  %103 = load ptr, ptr %24, align 8
  %104 = load i32, ptr %17, align 4
  %105 = load ptr, ptr %14, align 8
  %106 = load i32, ptr %20, align 4
  %107 = call ptr @proto_tree_add_item(ptr noundef %103, i32 noundef %104, ptr noundef %105, i32 noundef %106, i32 noundef 4, i32 noundef 0)
  %108 = load i32, ptr %20, align 4
  %109 = add i32 %108, 4
  store i32 %109, ptr %20, align 4
  %110 = load i32, ptr %20, align 4
  %111 = add i32 %110, 8
  store i32 %111, ptr %20, align 4
  %112 = load ptr, ptr %11, align 8
  %113 = load ptr, ptr %14, align 8
  %114 = load i32, ptr %20, align 4
  %115 = add i32 %114, 1
  %116 = load i8, ptr %22, align 1
  %117 = zext i8 %116 to i32
  %118 = call ptr @tvb_get_string_enc(ptr noundef %112, ptr noundef %113, i32 noundef %115, i32 noundef %117, i32 noundef 0)
  store ptr %118, ptr %23, align 8
  %119 = load ptr, ptr %24, align 8
  %120 = load i32, ptr %19, align 4
  %121 = load ptr, ptr %14, align 8
  %122 = load i32, ptr %20, align 4
  %123 = call ptr @proto_tree_add_item(ptr noundef %119, i32 noundef %120, ptr noundef %121, i32 noundef %122, i32 noundef 1, i32 noundef 0)
  store ptr %123, ptr %25, align 8
  %124 = load i8, ptr %22, align 1
  %125 = zext i8 %124 to i32
  %126 = add i32 %125, 1
  %127 = load i32, ptr %20, align 4
  %128 = add i32 %127, %126
  store i32 %128, ptr %20, align 4
  %129 = load ptr, ptr %23, align 8
  %130 = getelementptr i8, ptr %129, i64 0
  %131 = load i8, ptr %130, align 1
  %132 = zext i8 %131 to i32
  %133 = icmp eq i32 %132, 65
  br i1 %133, label %143, label %134

134:                                              ; preds = %86
  %135 = load ptr, ptr %23, align 8
  %136 = getelementptr i8, ptr %135, i64 0
  %137 = load i8, ptr %136, align 1
  %138 = zext i8 %137 to i32
  %139 = icmp eq i32 %138, 66
  br i1 %139, label %143, label %140

140:                                              ; preds = %134
  %141 = load ptr, ptr %25, align 8
  call void (ptr, ptr, ...) @proto_item_append_text(ptr noundef %141, ptr noundef @.str.97)
  %142 = load i32, ptr %20, align 4
  store i32 %142, ptr %10, align 4
  store i32 1, ptr %26, align 4
  br label %151

143:                                              ; preds = %134, %86
  %144 = load ptr, ptr %25, align 8
  %145 = load ptr, ptr %23, align 8
  %146 = getelementptr i8, ptr %145, i64 1
  %147 = load i8, ptr %146, align 1
  %148 = zext i8 %147 to i32
  %149 = call ptr @val_to_str_const(i32 noundef %148, ptr noundef @suffix_vals, ptr noundef @.str.99)
  call void (ptr, ptr, ...) @proto_item_append_text(ptr noundef %144, ptr noundef @.str.98, ptr noundef %149)
  %150 = load i32, ptr %20, align 4
  store i32 %150, ptr %10, align 4
  store i32 1, ptr %26, align 4
  br label %151

151:                                              ; preds = %143, %140, %83, %73, %63, %42
  call void @llvm.lifetime.end.p0(i64 8, ptr %25) #4
  call void @llvm.lifetime.end.p0(i64 8, ptr %24) #4
  call void @llvm.lifetime.end.p0(i64 8, ptr %23) #4
  call void @llvm.lifetime.end.p0(i64 1, ptr %22) #4
  call void @llvm.lifetime.end.p0(i64 1, ptr %21) #4
  call void @llvm.lifetime.end.p0(i64 4, ptr %20) #4
  %152 = load i32, ptr %10, align 4
  ret i32 %152
}