; Function Attrs: null_pointer_is_valid sspstrong uwtable
define internal fastcc noundef i32 @dissect_lower_address(ptr noundef %0, ptr noundef %1, i32 noundef %2, ptr noundef %3, i32 noundef %4, i32 noundef %5, i32 noundef %6, i32 noundef %7, i32 noundef %8) unnamed_addr #0 {
  %10 = tail call ptr @proto_item_add_subtree(ptr noundef %1, i32 noundef %2)
  %11 = tail call zeroext i8 @tvb_get_uint8(ptr noundef %3, i32 noundef %4)
  %12 = zext i8 %11 to i32
  %13 = add i32 %4, %12
  %14 = add i32 %13, 1
  %15 = tail call i32 @tvb_captured_length_remaining(ptr noundef %3, i32 noundef %14)
  %16 = icmp slt i32 %15, 1
  br i1 %16, label %51, label %17

17:                                               ; preds = %9
  %18 = tail call zeroext i8 @tvb_get_uint8(ptr noundef %3, i32 noundef %14)
  %19 = zext i8 %18 to i32
  %20 = add i32 %13, 2
  %21 = add i32 %20, %19
  %22 = tail call i32 @tvb_reported_length_remaining(ptr noundef %3, i32 noundef %21)
  %23 = icmp slt i32 %22, 1
  br i1 %23, label %51, label %24

24:                                               ; preds = %17
  %25 = icmp ne i8 %11, 17
  %26 = icmp ne i8 %18, 2
  %or.cond = or i1 %25, %26
  br i1 %or.cond, label %27, label %28

27:                                               ; preds = %24
  tail call void (ptr, ptr, ...) @proto_item_append_text(ptr noundef %10, ptr noundef nonnull @.str.95)
  br label %51

28:                                               ; preds = %24
  %29 = add i32 %4, 1
  %30 = tail call zeroext i8 @tvb_get_uint8(ptr noundef %3, i32 noundef %29)
  %.not = icmp eq i8 %30, -126
  br i1 %.not, label %32, label %31

31:                                               ; preds = %28
  tail call void (ptr, ptr, ...) @proto_item_append_text(ptr noundef %10, ptr noundef nonnull @.str.96)
  br label %51

32:                                               ; preds = %28
  %33 = add i32 %4, 2
  %34 = tail call ptr @proto_tree_add_item(ptr noundef %10, i32 noundef %5, ptr noundef %3, i32 noundef %33, i32 noundef 2, i32 noundef 0)
  %35 = add i32 %4, 4
  %36 = tail call ptr @proto_tree_add_item(ptr noundef %10, i32 noundef %7, ptr noundef %3, i32 noundef %35, i32 noundef 2, i32 noundef 0)
  %37 = add i32 %4, 6
  %38 = tail call ptr @proto_tree_add_item(ptr noundef %10, i32 noundef %6, ptr noundef %3, i32 noundef %37, i32 noundef 4, i32 noundef 0)
  %39 = add i32 %4, 18
  %40 = add i32 %4, 19
  %41 = tail call ptr @tvb_get_string_enc(ptr noundef %0, ptr noundef %3, i32 noundef %40, i32 noundef 2, i32 noundef 0)
  %42 = tail call ptr @proto_tree_add_item(ptr noundef %10, i32 noundef %8, ptr noundef %3, i32 noundef %39, i32 noundef 1, i32 noundef 0)
  %43 = add i32 %4, 21
  %44 = load i8, ptr %41, align 1
  %.off = add i8 %44, -65
  %switch = icmp ult i8 %.off, 2
  br i1 %switch, label %46, label %45

45:                                               ; preds = %32
  tail call void (ptr, ptr, ...) @proto_item_append_text(ptr noundef %42, ptr noundef nonnull @.str.97)
  br label %51

46:                                               ; preds = %32
  %47 = getelementptr i8, ptr %41, i64 1
  %48 = load i8, ptr %47, align 1
  %49 = zext i8 %48 to i32
  %50 = tail call ptr @val_to_str_const(i32 noundef %49, ptr noundef nonnull @suffix_vals, ptr noundef nonnull @.str.99)
  tail call void (ptr, ptr, ...) @proto_item_append_text(ptr noundef %42, ptr noundef nonnull @.str.98, ptr noundef %50)
  br label %51

51:                                               ; preds = %17, %9, %46, %45, %31, %27
  %.0 = phi i32 [ %4, %27 ], [ %4, %31 ], [ %43, %46 ], [ %43, %45 ], [ %4, %9 ], [ %4, %17 ]
  ret i32 %.0
}